; ModuleID = '53/1459.c'
source_filename = "53/1459.c"
target datalayout = "e-m:e-p270:32:32-p271:32:32-p272:64:64-i64:64-f80:128-n8:16:32:64-S128"
target triple = "x86_64-pc-linux-gnu"

@.str = private unnamed_addr constant [3 x i8] c"%d\00", align 1
@.str.1 = private unnamed_addr constant [4 x i8] c",%d\00", align 1

; Function Attrs: noinline nounwind uwtable
define dso_local i32 @main() #0 {
  %1 = alloca i32, align 4
  %2 = alloca i32, align 4
  %3 = alloca [300 x i32], align 16
  %4 = alloca [300 x i32], align 16
  %5 = alloca i32, align 4
  %6 = alloca i32, align 4
  %7 = alloca i32, align 4
  %8 = alloca i32, align 4
  %9 = alloca i32, align 4
  store i32 0, i32* %1, align 4
  store i32 0, i32* %5, align 4
  store i32 0, i32* %6, align 4
  store i32 0, i32* %7, align 4
  store i32 0, i32* %8, align 4
  store i32 0, i32* %9, align 4
  %10 = call i32 (i8*, ...) @__isoc99_scanf(i8* getelementptr inbounds ([3 x i8], [3 x i8]* @.str, i64 0, i64 0), i32* %2)
  store i32 0, i32* %5, align 4
  br label %11

11:                                               ; preds = %20, %0
  %12 = load i32, i32* %5, align 4
  %13 = load i32, i32* %2, align 4
  %14 = icmp slt i32 %12, %13
  br i1 %14, label %15, label %23

15:                                               ; preds = %11
  %16 = load i32, i32* %5, align 4
  %17 = sext i32 %16 to i64
  %18 = getelementptr inbounds [300 x i32], [300 x i32]* %3, i64 0, i64 %17
  %19 = call i32 (i8*, ...) @__isoc99_scanf(i8* getelementptr inbounds ([3 x i8], [3 x i8]* @.str, i64 0, i64 0), i32* %18)
  br label %20

20:                                               ; preds = %15
  %21 = load i32, i32* %5, align 4
  %22 = add nsw i32 %21, 1
  store i32 %22, i32* %5, align 4
  br label %11

23:                                               ; preds = %11
  %24 = getelementptr inbounds [300 x i32], [300 x i32]* %3, i64 0, i64 0
  %25 = load i32, i32* %24, align 16
  %26 = call i32 (i8*, ...) @printf(i8* getelementptr inbounds ([3 x i8], [3 x i8]* @.str, i64 0, i64 0), i32 %25)
  %27 = getelementptr inbounds [300 x i32], [300 x i32]* %3, i64 0, i64 0
  %28 = load i32, i32* %27, align 16
  %29 = getelementptr inbounds [300 x i32], [300 x i32]* %4, i64 0, i64 0
  store i32 %28, i32* %29, align 16
  store i32 1, i32* %5, align 4
  store i32 1, i32* %5, align 4
  br label %30

30:                                               ; preds = %68, %23
  %31 = load i32, i32* %5, align 4
  %32 = load i32, i32* %2, align 4
  %33 = icmp slt i32 %31, %32
  br i1 %33, label %34, label %71

34:                                               ; preds = %30
  store i32 0, i32* %7, align 4
  br label %35

35:                                               ; preds = %51, %34
  %36 = load i32, i32* %7, align 4
  %37 = load i32, i32* %6, align 4
  %38 = icmp sle i32 %36, %37
  br i1 %38, label %39, label %54

39:                                               ; preds = %35
  store i32 0, i32* %8, align 4
  %40 = load i32, i32* %7, align 4
  %41 = sext i32 %40 to i64
  %42 = getelementptr inbounds [300 x i32], [300 x i32]* %4, i64 0, i64 %41
  %43 = load i32, i32* %42, align 4
  %44 = load i32, i32* %5, align 4
  %45 = sext i32 %44 to i64
  %46 = getelementptr inbounds [300 x i32], [300 x i32]* %3, i64 0, i64 %45
  %47 = load i32, i32* %46, align 4
  %48 = icmp eq i32 %43, %47
  br i1 %48, label %49, label %50

49:                                               ; preds = %39
  store i32 1, i32* %8, align 4
  br label %54

50:                                               ; preds = %39
  br label %51

51:                                               ; preds = %50
  %52 = load i32, i32* %7, align 4
  %53 = add nsw i32 %52, 1
  store i32 %53, i32* %7, align 4
  br label %35

54:                                               ; preds = %49, %35
  %55 = load i32, i32* %8, align 4
  %56 = icmp eq i32 %55, 0
  br i1 %56, label %57, label %67

57:                                               ; preds = %54
  %58 = load i32, i32* %6, align 4
  %59 = add nsw i32 %58, 1
  store i32 %59, i32* %6, align 4
  %60 = load i32, i32* %5, align 4
  %61 = sext i32 %60 to i64
  %62 = getelementptr inbounds [300 x i32], [300 x i32]* %3, i64 0, i64 %61
  %63 = load i32, i32* %62, align 4
  %64 = load i32, i32* %6, align 4
  %65 = sext i32 %64 to i64
  %66 = getelementptr inbounds [300 x i32], [300 x i32]* %4, i64 0, i64 %65
  store i32 %63, i32* %66, align 4
  br label %67

67:                                               ; preds = %57, %54
  br label %68

68:                                               ; preds = %67
  %69 = load i32, i32* %5, align 4
  %70 = add nsw i32 %69, 1
  store i32 %70, i32* %5, align 4
  br label %30

71:                                               ; preds = %30
  store i32 1, i32* %7, align 4
  br label %72

72:                                               ; preds = %82, %71
  %73 = load i32, i32* %7, align 4
  %74 = load i32, i32* %6, align 4
  %75 = icmp sle i32 %73, %74
  br i1 %75, label %76, label %85

76:                                               ; preds = %72
  %77 = load i32, i32* %7, align 4
  %78 = sext i32 %77 to i64
  %79 = getelementptr inbounds [300 x i32], [300 x i32]* %4, i64 0, i64 %78
  %80 = load i32, i32* %79, align 4
  %81 = call i32 (i8*, ...) @printf(i8* getelementptr inbounds ([4 x i8], [4 x i8]* @.str.1, i64 0, i64 0), i32 %80)
  br label %82

82:                                               ; preds = %76
  %83 = load i32, i32* %7, align 4
  %84 = add nsw i32 %83, 1
  store i32 %84, i32* %7, align 4
  br label %72

85:                                               ; preds = %72
  ret i32 0
}

declare dso_local i32 @__isoc99_scanf(i8*, ...) #1

declare dso_local i32 @printf(i8*, ...) #1


!llvm.module.flags = !{!0}
!llvm.ident = !{!1}

!0 = !{i32 1, !"wchar_size", i32 4}
!1 = !{!"clang version 10.0.0-4ubuntu1 "}
