; ModuleID = 'source-C-CXX/52/1459.c'
source_filename = "source-C-CXX/52/1459.c"
target datalayout = "e-m:e-p270:32:32-p271:32:32-p272:64:64-i64:64-f80:128-n8:16:32:64-S128"
target triple = "x86_64-pc-linux-gnu"

@.str = private unnamed_addr constant [3 x i8] c"%d\00", align 1
@.str.1 = private unnamed_addr constant [4 x i8] c",%d\00", align 1

; Function Attrs: nofree nounwind sspstrong uwtable
define dso_local i32 @main() local_unnamed_addr #0 {
  %1 = alloca i32, align 4
  %2 = alloca [300 x i32], align 16
  %3 = alloca [300 x i32], align 16
  %4 = bitcast i32* %1 to i8*
  call void @llvm.lifetime.start.p0i8(i64 4, i8* nonnull %4) #3
  %5 = bitcast [300 x i32]* %2 to i8*
  call void @llvm.lifetime.start.p0i8(i64 1200, i8* nonnull %5) #3
  %6 = bitcast [300 x i32]* %3 to i8*
  call void @llvm.lifetime.start.p0i8(i64 1200, i8* nonnull %6) #3
  %7 = call i32 (i8*, ...) @__isoc99_scanf(i8* getelementptr inbounds ([3 x i8], [3 x i8]* @.str, i64 0, i64 0), i32* nonnull %1)
  %8 = load i32, i32* %1, align 4, !tbaa !5
  %9 = icmp sgt i32 %8, 0
  br i1 %9, label %10, label %21

10:                                               ; preds = %0, %10
  %11 = phi i64 [ %14, %10 ], [ 0, %0 ]
  %12 = getelementptr inbounds [300 x i32], [300 x i32]* %2, i64 0, i64 %11
  %13 = call i32 (i8*, ...) @__isoc99_scanf(i8* getelementptr inbounds ([3 x i8], [3 x i8]* @.str, i64 0, i64 0), i32* nonnull %12)
  %14 = add nuw nsw i64 %11, 1
  %15 = load i32, i32* %1, align 4, !tbaa !5
  %16 = sext i32 %15 to i64
  %17 = icmp slt i64 %14, %16
  br i1 %17, label %10, label %18, !llvm.loop !9

18:                                               ; preds = %10
  %19 = getelementptr inbounds [300 x i32], [300 x i32]* %2, i64 0, i64 0
  %20 = load i32, i32* %19, align 16, !tbaa !5
  br label %21

21:                                               ; preds = %18, %0
  %22 = phi i32 [ %20, %18 ], [ undef, %0 ]
  %23 = getelementptr inbounds [300 x i32], [300 x i32]* %2, i64 0, i64 0
  %24 = call i32 (i8*, ...) @printf(i8* nonnull dereferenceable(1) getelementptr inbounds ([3 x i8], [3 x i8]* @.str, i64 0, i64 0), i32 %22)
  %25 = load i32, i32* %23, align 16, !tbaa !5
  %26 = getelementptr inbounds [300 x i32], [300 x i32]* %3, i64 0, i64 0
  store i32 %25, i32* %26, align 16, !tbaa !5
  %27 = load i32, i32* %1, align 4, !tbaa !5
  %28 = icmp sgt i32 %27, 1
  br i1 %28, label %29, label %74

29:                                               ; preds = %21
  %30 = zext i32 %27 to i64
  br label %31

31:                                               ; preds = %29, %62
  %32 = phi i64 [ 1, %29 ], [ %65, %62 ]
  %33 = phi i32 [ 0, %29 ], [ %63, %62 ]
  %34 = phi i32 [ 0, %29 ], [ %64, %62 ]
  %35 = icmp slt i32 %34, 0
  br i1 %35, label %54, label %36

36:                                               ; preds = %31
  %37 = getelementptr inbounds [300 x i32], [300 x i32]* %2, i64 0, i64 %32
  %38 = load i32, i32* %37, align 4, !tbaa !5
  %39 = add nuw i32 %34, 1
  %40 = zext i32 %39 to i64
  br label %49

41:                                               ; preds = %62
  %42 = icmp slt i32 %64, 1
  br i1 %42, label %74, label %43

43:                                               ; preds = %41
  %44 = add nuw i32 %64, 1
  %45 = zext i32 %44 to i64
  br label %67

46:                                               ; preds = %49
  %47 = add nuw nsw i64 %50, 1
  %48 = icmp eq i64 %47, %40
  br i1 %48, label %56, label %49, !llvm.loop !11

49:                                               ; preds = %36, %46
  %50 = phi i64 [ 0, %36 ], [ %47, %46 ]
  %51 = getelementptr inbounds [300 x i32], [300 x i32]* %3, i64 0, i64 %50
  %52 = load i32, i32* %51, align 4, !tbaa !5
  %53 = icmp eq i32 %52, %38
  br i1 %53, label %62, label %46

54:                                               ; preds = %31
  %55 = icmp eq i32 %33, 0
  br i1 %55, label %56, label %62

56:                                               ; preds = %46, %54
  %57 = add nsw i32 %34, 1
  %58 = getelementptr inbounds [300 x i32], [300 x i32]* %2, i64 0, i64 %32
  %59 = load i32, i32* %58, align 4, !tbaa !5
  %60 = sext i32 %57 to i64
  %61 = getelementptr inbounds [300 x i32], [300 x i32]* %3, i64 0, i64 %60
  store i32 %59, i32* %61, align 4, !tbaa !5
  br label %62

62:                                               ; preds = %49, %54, %56
  %63 = phi i32 [ 0, %56 ], [ %33, %54 ], [ 1, %49 ]
  %64 = phi i32 [ %57, %56 ], [ %34, %54 ], [ %34, %49 ]
  %65 = add nuw nsw i64 %32, 1
  %66 = icmp eq i64 %65, %30
  br i1 %66, label %41, label %31, !llvm.loop !12

67:                                               ; preds = %43, %67
  %68 = phi i64 [ 1, %43 ], [ %72, %67 ]
  %69 = getelementptr inbounds [300 x i32], [300 x i32]* %3, i64 0, i64 %68
  %70 = load i32, i32* %69, align 4, !tbaa !5
  %71 = call i32 (i8*, ...) @printf(i8* nonnull dereferenceable(1) getelementptr inbounds ([4 x i8], [4 x i8]* @.str.1, i64 0, i64 0), i32 %70)
  %72 = add nuw nsw i64 %68, 1
  %73 = icmp eq i64 %72, %45
  br i1 %73, label %74, label %67, !llvm.loop !13

74:                                               ; preds = %67, %21, %41
  call void @llvm.lifetime.end.p0i8(i64 1200, i8* nonnull %6) #3
  call void @llvm.lifetime.end.p0i8(i64 1200, i8* nonnull %5) #3
  call void @llvm.lifetime.end.p0i8(i64 4, i8* nonnull %4) #3
  ret i32 0
}

; Function Attrs: argmemonly mustprogress nofree nosync nounwind willreturn
declare void @llvm.lifetime.start.p0i8(i64 immarg, i8* nocapture) #1

; Function Attrs: nofree nounwind
declare noundef i32 @__isoc99_scanf(i8* nocapture noundef readonly, ...) local_unnamed_addr #2

; Function Attrs: nofree nounwind
declare noundef i32 @printf(i8* nocapture noundef readonly, ...) local_unnamed_addr #2

; Function Attrs: argmemonly mustprogress nofree nosync nounwind willreturn
declare void @llvm.lifetime.end.p0i8(i64 immarg, i8* nocapture) #1


!llvm.module.flags = !{!0, !1, !2, !3}
!llvm.ident = !{!4}

!0 = !{i32 1, !"wchar_size", i32 4}
!1 = !{i32 7, !"PIC Level", i32 2}
!2 = !{i32 7, !"PIE Level", i32 2}
!3 = !{i32 7, !"uwtable", i32 1}
!4 = !{!"clang version 13.0.0"}
!5 = !{!6, !6, i64 0}
!6 = !{!"int", !7, i64 0}
!7 = !{!"omnipotent char", !8, i64 0}
!8 = !{!"Simple C/C++ TBAA"}
!9 = distinct !{!9, !10}
!10 = !{!"llvm.loop.mustprogress"}
!11 = distinct !{!11, !10}
!12 = distinct !{!12, !10}
!13 = distinct !{!13, !10}
